; Function Attrs: nounwind uwtable
define ptr @l_Lake_buildLeanSharedLib(ptr noundef %0, ptr noundef %1, ptr noundef %2, ptr noundef %3, ptr noundef %4, ptr noundef %5, i8 noundef zeroext %6, i8 noundef zeroext %7, ptr noundef %8, ptr noundef %9, ptr noundef %10, ptr noundef %11, ptr noundef %12, ptr noundef %13) local_unnamed_addr #0 {
  %15 = load ptr, ptr @l_Lake_buildSharedLib___closed__1, align 8, !tbaa !9
  %16 = tail call ptr @l_Lake_Job_collectArray___rarg(ptr noundef %2, ptr noundef %15) #5
  tail call void @lean_inc_heartbeat() #5
  %17 = tail call noalias ptr @mi_malloc_small(i64 noundef 80) #5
  %18 = icmp eq ptr %17, null
  br i1 %18, label %19, label %lean_alloc_closure.exit

19:                                               ; preds = %14
  tail call void @lean_internal_panic_out_of_memory() #6
  unreachable

lean_alloc_closure.exit:                          ; preds = %14
  %20 = zext i8 %6 to i64
  %21 = shl nuw nsw i64 %20, 1
  %22 = or disjoint i64 %21, 1
  %23 = inttoptr i64 %22 to ptr
  %24 = zext i8 %7 to i64
  %25 = shl nuw nsw i64 %24, 1
  %26 = or disjoint i64 %25, 1
  %27 = inttoptr i64 %26 to ptr
  %28 = getelementptr inbounds nuw i8, ptr %17, i64 4
  store i32 1, ptr %17, align 4, !tbaa !4
  store i32 -184549296, ptr %28, align 4
  %29 = getelementptr inbounds nuw i8, ptr %17, i64 8
  store ptr @l_Lake_buildLeanSharedLib___lambda__4___boxed, ptr %29, align 8, !tbaa !9
  %30 = getelementptr inbounds nuw i8, ptr %17, i64 16
  store i16 14, ptr %30, align 8, !tbaa !15
  %31 = getelementptr inbounds nuw i8, ptr %17, i64 18
  store i16 7, ptr %31, align 2, !tbaa !15
  %32 = getelementptr inbounds nuw i8, ptr %17, i64 24
  store ptr %3, ptr %32, align 8, !tbaa !9
  %33 = getelementptr inbounds nuw i8, ptr %17, i64 32
  store ptr %5, ptr %33, align 8, !tbaa !9
  %34 = getelementptr inbounds nuw i8, ptr %17, i64 40
  store ptr %4, ptr %34, align 8, !tbaa !9
  %35 = getelementptr inbounds nuw i8, ptr %17, i64 48
  store ptr %1, ptr %35, align 8, !tbaa !9
  %36 = getelementptr inbounds nuw i8, ptr %17, i64 56
  store ptr %27, ptr %36, align 8, !tbaa !9
  %37 = getelementptr inbounds nuw i8, ptr %17, i64 64
  store ptr %0, ptr %37, align 8, !tbaa !9
  %38 = getelementptr inbounds nuw i8, ptr %17, i64 72
  store ptr %23, ptr %38, align 8, !tbaa !9
  %39 = load ptr, ptr @l_Task_Priority_default, align 8, !tbaa !9
  %40 = tail call ptr @l_Lake_Job_bindM___at_Lake_buildSharedLib___spec__7(ptr noundef %16, ptr noundef nonnull %17, ptr noundef %39, i8 noundef zeroext 0, ptr noundef %8, ptr noundef %9, ptr noundef %10, ptr noundef %11, ptr noundef %12, ptr noundef %13)
  ret ptr %40
}